target datalayout = "e-m:e-p270:32:32-p271:32:32-p272:64:64-i64:64-i128:128-f80:128-n8:16:32:64-S128"
target triple = "x86_64-pc-linux-gnu"

%struct.Model = type { [257 x i16], [257 x i16], [257 x i8], i32, i32, i32 }
%struct.PixContext = type { i32, i32, [12 x i8], %struct.Model, %struct.Model, [15 x [4 x %struct.Model]], i32 }

; Function Attrs: nounwind uwtable
define internal void @model_reset(ptr noundef %0) #0 {
  %2 = alloca ptr, align 8
  %3 = alloca i32, align 4
  store ptr %0, ptr %2, align 8, !tbaa !4
  call void @llvm.lifetime.start.p0(i64 4, ptr %3) #8
  store i32 0, ptr %3, align 4, !tbaa !9
  br label %4

4:                                                ; preds = %27, %1
  %5 = load i32, ptr %3, align 4, !tbaa !9
  %6 = load ptr, ptr %2, align 8, !tbaa !4
  %7 = getelementptr inbounds nuw %struct.Model, ptr %6, i32 0, i32 3
  %8 = load i32, ptr %7, align 4, !tbaa !20
  %9 = icmp sle i32 %5, %8
  br i1 %9, label %10, label %30

10:                                               ; preds = %4
  %11 = load ptr, ptr %2, align 8, !tbaa !4
  %12 = getelementptr inbounds nuw %struct.Model, ptr %11, i32 0, i32 1
  %13 = load i32, ptr %3, align 4, !tbaa !9
  %14 = sext i32 %13 to i64
  %15 = getelementptr inbounds [257 x i16], ptr %12, i64 0, i64 %14
  store i16 1, ptr %15, align 2, !tbaa !11
  %16 = load ptr, ptr %2, align 8, !tbaa !4
  %17 = getelementptr inbounds nuw %struct.Model, ptr %16, i32 0, i32 3
  %18 = load i32, ptr %17, align 4, !tbaa !20
  %19 = load i32, ptr %3, align 4, !tbaa !9
  %20 = sub nsw i32 %18, %19
  %21 = trunc i32 %20 to i16
  %22 = load ptr, ptr %2, align 8, !tbaa !4
  %23 = getelementptr inbounds nuw %struct.Model, ptr %22, i32 0, i32 0
  %24 = load i32, ptr %3, align 4, !tbaa !9
  %25 = sext i32 %24 to i64
  %26 = getelementptr inbounds [257 x i16], ptr %23, i64 0, i64 %25
  store i16 %21, ptr %26, align 2, !tbaa !11
  br label %27

27:                                               ; preds = %10
  %28 = load i32, ptr %3, align 4, !tbaa !9
  %29 = add nsw i32 %28, 1
  store i32 %29, ptr %3, align 4, !tbaa !9
  br label %4, !llvm.loop !25

30:                                               ; preds = %4
  %31 = load ptr, ptr %2, align 8, !tbaa !4
  %32 = getelementptr inbounds nuw %struct.Model, ptr %31, i32 0, i32 1
  %33 = getelementptr inbounds [257 x i16], ptr %32, i64 0, i64 0
  store i16 0, ptr %33, align 2, !tbaa !11
  store i32 0, ptr %3, align 4, !tbaa !9
  br label %34

34:                                               ; preds = %49, %30
  %35 = load i32, ptr %3, align 4, !tbaa !9
  %36 = load ptr, ptr %2, align 8, !tbaa !4
  %37 = getelementptr inbounds nuw %struct.Model, ptr %36, i32 0, i32 3
  %38 = load i32, ptr %37, align 4, !tbaa !20
  %39 = icmp slt i32 %35, %38
  br i1 %39, label %40, label %52

40:                                               ; preds = %34
  %41 = load i32, ptr %3, align 4, !tbaa !9
  %42 = trunc i32 %41 to i8
  %43 = load ptr, ptr %2, align 8, !tbaa !4
  %44 = getelementptr inbounds nuw %struct.Model, ptr %43, i32 0, i32 2
  %45 = load i32, ptr %3, align 4, !tbaa !9
  %46 = add nsw i32 %45, 1
  %47 = sext i32 %46 to i64
  %48 = getelementptr inbounds [257 x i8], ptr %44, i64 0, i64 %47
  store i8 %42, ptr %48, align 1, !tbaa !15
  br label %49

49:                                               ; preds = %40
  %50 = load i32, ptr %3, align 4, !tbaa !9
  %51 = add nsw i32 %50, 1
  store i32 %51, ptr %3, align 4, !tbaa !9
  br label %34, !llvm.loop !26

52:                                               ; preds = %34
  call void @llvm.lifetime.end.p0(i64 4, ptr %3) #8
  ret void
}

; Function Attrs: nounwind uwtable
define internal void @pixctx_reset(ptr noundef %0) #0 {
  %2 = alloca ptr, align 8
  %3 = alloca i32, align 4
  %4 = alloca i32, align 4
  store ptr %0, ptr %2, align 8, !tbaa !27
  call void @llvm.lifetime.start.p0(i64 4, ptr %3) #8
  call void @llvm.lifetime.start.p0(i64 4, ptr %4) #8
  %5 = load ptr, ptr %2, align 8, !tbaa !27
  %6 = getelementptr inbounds nuw %struct.PixContext, ptr %5, i32 0, i32 6
  %7 = load i32, ptr %6, align 4, !tbaa !29
  %8 = icmp ne i32 %7, 0
  br i1 %8, label %28, label %9

9:                                                ; preds = %1
  store i32 0, ptr %3, align 4, !tbaa !9
  br label %10

10:                                               ; preds = %24, %9
  %11 = load i32, ptr %3, align 4, !tbaa !9
  %12 = load ptr, ptr %2, align 8, !tbaa !27
  %13 = getelementptr inbounds nuw %struct.PixContext, ptr %12, i32 0, i32 0
  %14 = load i32, ptr %13, align 4, !tbaa !31
  %15 = icmp slt i32 %11, %14
  br i1 %15, label %16, label %27

16:                                               ; preds = %10
  %17 = load i32, ptr %3, align 4, !tbaa !9
  %18 = trunc i32 %17 to i8
  %19 = load ptr, ptr %2, align 8, !tbaa !27
  %20 = getelementptr inbounds nuw %struct.PixContext, ptr %19, i32 0, i32 2
  %21 = load i32, ptr %3, align 4, !tbaa !9
  %22 = sext i32 %21 to i64
  %23 = getelementptr inbounds [12 x i8], ptr %20, i64 0, i64 %22
  store i8 %18, ptr %23, align 1, !tbaa !15
  br label %24

24:                                               ; preds = %16
  %25 = load i32, ptr %3, align 4, !tbaa !9
  %26 = add nsw i32 %25, 1
  store i32 %26, ptr %3, align 4, !tbaa !9
  br label %10, !llvm.loop !32

27:                                               ; preds = %10
  br label %38

28:                                               ; preds = %1
  %29 = load ptr, ptr %2, align 8, !tbaa !27
  %30 = getelementptr inbounds nuw %struct.PixContext, ptr %29, i32 0, i32 2
  %31 = getelementptr inbounds [12 x i8], ptr %30, i64 0, i64 0
  store i8 1, ptr %31, align 4, !tbaa !15
  %32 = load ptr, ptr %2, align 8, !tbaa !27
  %33 = getelementptr inbounds nuw %struct.PixContext, ptr %32, i32 0, i32 2
  %34 = getelementptr inbounds [12 x i8], ptr %33, i64 0, i64 1
  store i8 2, ptr %34, align 1, !tbaa !15
  %35 = load ptr, ptr %2, align 8, !tbaa !27
  %36 = getelementptr inbounds nuw %struct.PixContext, ptr %35, i32 0, i32 2
  %37 = getelementptr inbounds [12 x i8], ptr %36, i64 0, i64 2
  store i8 4, ptr %37, align 2, !tbaa !15
  br label %38

38:                                               ; preds = %28, %27
  %39 = load ptr, ptr %2, align 8, !tbaa !27
  %40 = getelementptr inbounds nuw %struct.PixContext, ptr %39, i32 0, i32 3
  call void @model_reset(ptr noundef %40)
  %41 = load ptr, ptr %2, align 8, !tbaa !27
  %42 = getelementptr inbounds nuw %struct.PixContext, ptr %41, i32 0, i32 4
  call void @model_reset(ptr noundef %42)
  store i32 0, ptr %3, align 4, !tbaa !9
  br label %43

43:                                               ; preds = %63, %38
  %44 = load i32, ptr %3, align 4, !tbaa !9
  %45 = icmp slt i32 %44, 15
  br i1 %45, label %46, label %66

46:                                               ; preds = %43
  store i32 0, ptr %4, align 4, !tbaa !9
  br label %47

47:                                               ; preds = %59, %46
  %48 = load i32, ptr %4, align 4, !tbaa !9
  %49 = icmp slt i32 %48, 4
  br i1 %49, label %50, label %62

50:                                               ; preds = %47
  %51 = load ptr, ptr %2, align 8, !tbaa !27
  %52 = getelementptr inbounds nuw %struct.PixContext, ptr %51, i32 0, i32 5
  %53 = load i32, ptr %3, align 4, !tbaa !9
  %54 = sext i32 %53 to i64
  %55 = getelementptr inbounds [15 x [4 x %struct.Model]], ptr %52, i64 0, i64 %54
  %56 = load i32, ptr %4, align 4, !tbaa !9
  %57 = sext i32 %56 to i64
  %58 = getelementptr inbounds [4 x %struct.Model], ptr %55, i64 0, i64 %57
  call void @model_reset(ptr noundef %58)
  br label %59

59:                                               ; preds = %50
  %60 = load i32, ptr %4, align 4, !tbaa !9
  %61 = add nsw i32 %60, 1
  store i32 %61, ptr %4, align 4, !tbaa !9
  br label %47, !llvm.loop !33

62:                                               ; preds = %47
  br label %63

63:                                               ; preds = %62
  %64 = load i32, ptr %3, align 4, !tbaa !9
  %65 = add nsw i32 %64, 1
  store i32 %65, ptr %3, align 4, !tbaa !9
  br label %43, !llvm.loop !34

66:                                               ; preds = %43
  call void @llvm.lifetime.end.p0(i64 4, ptr %4) #8
  call void @llvm.lifetime.end.p0(i64 4, ptr %3) #8
  ret void
}