; Function Attrs: nofree norecurse nosync nounwind memory(argmem: readwrite) uwtable
define internal fastcc void @pixctx_reset(ptr noundef captures(none) %0) unnamed_addr #0 {
  %2 = getelementptr inbounds nuw i8, ptr %0, i64 80620
  %3 = load i32, ptr %2, align 4, !tbaa !20
  %.not = icmp eq i32 %3, 0
  br i1 %.not, label %.preheader45, label %10

.preheader45:                                     ; preds = %1
  %4 = load i32, ptr %0, align 4, !tbaa !22
  %5 = icmp sgt i32 %4, 0
  br i1 %5, label %.lr.ph, label %.loopexit

.lr.ph:                                           ; preds = %.preheader45
  %6 = getelementptr inbounds nuw i8, ptr %0, i64 8
  %wide.trip.count = zext nneg i32 %4 to i64
  br label %7

7:                                                ; preds = %.lr.ph, %7
  %indvars.iv = phi i64 [ 0, %.lr.ph ], [ %indvars.iv.next, %7 ]
  %8 = trunc i64 %indvars.iv to i8
  %9 = getelementptr inbounds nuw [12 x i8], ptr %6, i64 0, i64 %indvars.iv
  store i8 %8, ptr %9, align 1, !tbaa !10
  %indvars.iv.next = add nuw nsw i64 %indvars.iv, 1
  %exitcond.not = icmp eq i64 %indvars.iv.next, %wide.trip.count
  br i1 %exitcond.not, label %.loopexit, label %7, !llvm.loop !23

10:                                               ; preds = %1
  %11 = getelementptr inbounds nuw i8, ptr %0, i64 8
  store i8 1, ptr %11, align 4, !tbaa !10
  %12 = getelementptr inbounds nuw i8, ptr %0, i64 9
  store i8 2, ptr %12, align 1, !tbaa !10
  %13 = getelementptr inbounds nuw i8, ptr %0, i64 10
  store i8 4, ptr %13, align 2, !tbaa !10
  br label %.loopexit

.loopexit:                                        ; preds = %7, %.preheader45, %10
  %14 = getelementptr inbounds nuw i8, ptr %0, i64 20
  %15 = getelementptr inbounds nuw i8, ptr %0, i64 1308
  %16 = load i32, ptr %15, align 4, !tbaa !16
  %.not15.i = icmp slt i32 %16, 0
  %17 = getelementptr inbounds nuw i8, ptr %0, i64 534
  br i1 %.not15.i, label %._crit_edge.thread.i, label %.lr.ph.i

._crit_edge.thread.i:                             ; preds = %.loopexit
  store i16 0, ptr %17, align 2, !tbaa !4
  br label %model_reset.exit

.lr.ph.i:                                         ; preds = %.loopexit
  %18 = add nuw i32 %16, 1
  %wide.trip.count.i = zext i32 %18 to i64
  br label %19

19:                                               ; preds = %19, %.lr.ph.i
  %indvars.iv.i = phi i64 [ 0, %.lr.ph.i ], [ %indvars.iv.next.i, %19 ]
  %20 = getelementptr inbounds nuw [257 x i16], ptr %17, i64 0, i64 %indvars.iv.i
  store i16 1, ptr %20, align 2, !tbaa !4
  %21 = trunc i64 %indvars.iv.i to i32
  %22 = sub i32 %16, %21
  %23 = trunc i32 %22 to i16
  %24 = getelementptr inbounds nuw [257 x i16], ptr %14, i64 0, i64 %indvars.iv.i
  store i16 %23, ptr %24, align 2, !tbaa !4
  %indvars.iv.next.i = add nuw nsw i64 %indvars.iv.i, 1
  %exitcond.not.i = icmp eq i64 %indvars.iv.next.i, %wide.trip.count.i
  br i1 %exitcond.not.i, label %._crit_edge.i, label %19, !llvm.loop !18

._crit_edge.i:                                    ; preds = %19
  store i16 0, ptr %17, align 2, !tbaa !4
  %.not.i = icmp eq i32 %16, 0
  br i1 %.not.i, label %model_reset.exit, label %.lr.ph19.i

.lr.ph19.i:                                       ; preds = %._crit_edge.i
  %25 = getelementptr inbounds nuw i8, ptr %0, i64 1048
  br label %26

26:                                               ; preds = %26, %.lr.ph19.i
  %indvars.iv22.i = phi i64 [ 0, %.lr.ph19.i ], [ %indvars.iv.next23.i, %26 ]
  %27 = trunc i64 %indvars.iv22.i to i8
  %indvars.iv.next23.i = add nuw nsw i64 %indvars.iv22.i, 1
  %28 = getelementptr inbounds nuw [257 x i8], ptr %25, i64 0, i64 %indvars.iv.next23.i
  store i8 %27, ptr %28, align 1, !tbaa !10
  %29 = load i32, ptr %15, align 4, !tbaa !16
  %30 = sext i32 %29 to i64
  %31 = icmp slt i64 %indvars.iv.next23.i, %30
  br i1 %31, label %26, label %model_reset.exit, !llvm.loop !19

model_reset.exit:                                 ; preds = %26, %._crit_edge.thread.i, %._crit_edge.i
  %32 = getelementptr inbounds nuw i8, ptr %0, i64 1320
  %33 = getelementptr inbounds nuw i8, ptr %0, i64 2608
  %34 = load i32, ptr %33, align 4, !tbaa !16
  %.not15.i19 = icmp slt i32 %34, 0
  %35 = getelementptr inbounds nuw i8, ptr %0, i64 1834
  br i1 %.not15.i19, label %._crit_edge.thread.i30, label %.lr.ph.i20

._crit_edge.thread.i30:                           ; preds = %model_reset.exit
  store i16 0, ptr %35, align 2, !tbaa !4
  br label %model_reset.exit31

.lr.ph.i20:                                       ; preds = %model_reset.exit
  %36 = add nuw i32 %34, 1
  %wide.trip.count.i21 = zext i32 %36 to i64
  br label %37

37:                                               ; preds = %37, %.lr.ph.i20
  %indvars.iv.i22 = phi i64 [ 0, %.lr.ph.i20 ], [ %indvars.iv.next.i23, %37 ]
  %38 = getelementptr inbounds nuw [257 x i16], ptr %35, i64 0, i64 %indvars.iv.i22
  store i16 1, ptr %38, align 2, !tbaa !4
  %39 = trunc i64 %indvars.iv.i22 to i32
  %40 = sub i32 %34, %39
  %41 = trunc i32 %40 to i16
  %42 = getelementptr inbounds nuw [257 x i16], ptr %32, i64 0, i64 %indvars.iv.i22
  store i16 %41, ptr %42, align 2, !tbaa !4
  %indvars.iv.next.i23 = add nuw nsw i64 %indvars.iv.i22, 1
  %exitcond.not.i24 = icmp eq i64 %indvars.iv.next.i23, %wide.trip.count.i21
  br i1 %exitcond.not.i24, label %._crit_edge.i25, label %37, !llvm.loop !18

._crit_edge.i25:                                  ; preds = %37
  store i16 0, ptr %35, align 2, !tbaa !4
  %.not.i26 = icmp eq i32 %34, 0
  br i1 %.not.i26, label %model_reset.exit31, label %.lr.ph19.i27

.lr.ph19.i27:                                     ; preds = %._crit_edge.i25
  %43 = getelementptr inbounds nuw i8, ptr %0, i64 2348
  br label %44

44:                                               ; preds = %44, %.lr.ph19.i27
  %indvars.iv22.i28 = phi i64 [ 0, %.lr.ph19.i27 ], [ %indvars.iv.next23.i29, %44 ]
  %45 = trunc i64 %indvars.iv22.i28 to i8
  %indvars.iv.next23.i29 = add nuw nsw i64 %indvars.iv22.i28, 1
  %46 = getelementptr inbounds nuw [257 x i8], ptr %43, i64 0, i64 %indvars.iv.next23.i29
  store i8 %45, ptr %46, align 1, !tbaa !10
  %47 = load i32, ptr %33, align 4, !tbaa !16
  %48 = sext i32 %47 to i64
  %49 = icmp slt i64 %indvars.iv.next23.i29, %48
  br i1 %49, label %44, label %model_reset.exit31, !llvm.loop !19

model_reset.exit31:                               ; preds = %44, %._crit_edge.thread.i30, %._crit_edge.i25
  %50 = getelementptr inbounds nuw i8, ptr %0, i64 2620
  br label %.preheader

.preheader:                                       ; preds = %model_reset.exit31, %70
  %indvars.iv54 = phi i64 [ 0, %model_reset.exit31 ], [ %indvars.iv.next55, %70 ]
  br label %51

51:                                               ; preds = %.preheader, %model_reset.exit44
  %indvars.iv50 = phi i64 [ 0, %.preheader ], [ %indvars.iv.next51, %model_reset.exit44 ]
  %52 = getelementptr inbounds nuw [15 x [4 x %struct.Model]], ptr %50, i64 0, i64 %indvars.iv54, i64 %indvars.iv50
  %53 = getelementptr inbounds nuw i8, ptr %52, i64 1288
  %54 = load i32, ptr %53, align 4, !tbaa !16
  %.not15.i32 = icmp slt i32 %54, 0
  %55 = getelementptr inbounds nuw i8, ptr %52, i64 514
  br i1 %.not15.i32, label %._crit_edge.thread.i43, label %.lr.ph.i33

._crit_edge.thread.i43:                           ; preds = %51
  store i16 0, ptr %55, align 2, !tbaa !4
  br label %model_reset.exit44

.lr.ph.i33:                                       ; preds = %51
  %56 = add nuw i32 %54, 1
  %wide.trip.count.i34 = zext i32 %56 to i64
  br label %57

57:                                               ; preds = %57, %.lr.ph.i33
  %indvars.iv.i35 = phi i64 [ 0, %.lr.ph.i33 ], [ %indvars.iv.next.i36, %57 ]
  %58 = getelementptr inbounds nuw [257 x i16], ptr %55, i64 0, i64 %indvars.iv.i35
  store i16 1, ptr %58, align 2, !tbaa !4
  %59 = trunc i64 %indvars.iv.i35 to i32
  %60 = sub i32 %54, %59
  %61 = trunc i32 %60 to i16
  %62 = getelementptr inbounds nuw [257 x i16], ptr %52, i64 0, i64 %indvars.iv.i35
  store i16 %61, ptr %62, align 2, !tbaa !4
  %indvars.iv.next.i36 = add nuw nsw i64 %indvars.iv.i35, 1
  %exitcond.not.i37 = icmp eq i64 %indvars.iv.next.i36, %wide.trip.count.i34
  br i1 %exitcond.not.i37, label %._crit_edge.i38, label %57, !llvm.loop !18

._crit_edge.i38:                                  ; preds = %57
  store i16 0, ptr %55, align 2, !tbaa !4
  %.not.i39 = icmp eq i32 %54, 0
  br i1 %.not.i39, label %model_reset.exit44, label %.lr.ph19.i40

.lr.ph19.i40:                                     ; preds = %._crit_edge.i38
  %63 = getelementptr inbounds nuw i8, ptr %52, i64 1028
  br label %64

64:                                               ; preds = %64, %.lr.ph19.i40
  %indvars.iv22.i41 = phi i64 [ 0, %.lr.ph19.i40 ], [ %indvars.iv.next23.i42, %64 ]
  %65 = trunc i64 %indvars.iv22.i41 to i8
  %indvars.iv.next23.i42 = add nuw nsw i64 %indvars.iv22.i41, 1
  %66 = getelementptr inbounds nuw [257 x i8], ptr %63, i64 0, i64 %indvars.iv.next23.i42
  store i8 %65, ptr %66, align 1, !tbaa !10
  %67 = load i32, ptr %53, align 4, !tbaa !16
  %68 = sext i32 %67 to i64
  %69 = icmp slt i64 %indvars.iv.next23.i42, %68
  br i1 %69, label %64, label %model_reset.exit44, !llvm.loop !19

model_reset.exit44:                               ; preds = %64, %._crit_edge.thread.i43, %._crit_edge.i38
  %indvars.iv.next51 = add nuw nsw i64 %indvars.iv50, 1
  %exitcond53.not = icmp eq i64 %indvars.iv.next51, 4
  br i1 %exitcond53.not, label %70, label %51, !llvm.loop !24

70:                                               ; preds = %model_reset.exit44
  %indvars.iv.next55 = add nuw nsw i64 %indvars.iv54, 1
  %exitcond57.not = icmp eq i64 %indvars.iv.next55, 15
  br i1 %exitcond57.not, label %71, label %.preheader, !llvm.loop !25

71:                                               ; preds = %70
  ret void
}